; Function Attrs: mustprogress uwtable
define hidden void @_ZN11doc_managerC2Ej(ptr noundef nonnull align 8 dereferenceable(1080) %this, i32 noundef %n) unnamed_addr #3 align 2 personality ptr @__gxx_personality_v0 {
entry:
  %mul.i = shl i32 %n, 1
  tail call void @_ZN24fixed_bit_vector_managerC1Ej(ptr noundef nonnull align 8 dereferenceable(540) %this, i32 noundef %mul.i)
  %allocated_tbvs.i = getelementptr inbounds i8, ptr %this, i64 544
  store ptr null, ptr %allocated_tbvs.i, align 8
  %m_alloc = getelementptr inbounds i8, ptr %this, i64 560
  invoke void @_ZN22small_object_allocatorC1EPKc(ptr noundef nonnull align 8 dereferenceable(520) %m_alloc, ptr noundef nonnull @.str)
          to label %invoke.cont unwind label %lpad

invoke.cont:                                      ; preds = %entry
  %call = invoke noundef ptr @_ZN11tbv_manager9allocateXEv(ptr noundef nonnull align 8 dereferenceable(552) %this)
          to label %invoke.cont4 unwind label %lpad3

invoke.cont4:                                     ; preds = %invoke.cont
  %m_full = getelementptr inbounds i8, ptr %this, i64 552
  store ptr %call, ptr %m_full, align 8
  ret void

lpad:                                             ; preds = %entry
  %0 = landingpad { ptr, i32 }
          cleanup
  br label %ehcleanup

lpad3:                                            ; preds = %invoke.cont
  %1 = landingpad { ptr, i32 }
          cleanup
  tail call void @_ZN22small_object_allocatorD1Ev(ptr noundef nonnull align 8 dereferenceable(520) %m_alloc) #16
  br label %ehcleanup

ehcleanup:                                        ; preds = %lpad3, %lpad
  %.pn = phi { ptr, i32 } [ %1, %lpad3 ], [ %0, %lpad ]
  tail call void @_ZN11tbv_managerD1Ev(ptr noundef nonnull align 8 dereferenceable(552) %this) #16
  resume { ptr, i32 } %.pn
}